target datalayout = "e-m:e-p270:32:32-p271:32:32-p272:64:64-i64:64-i128:128-f80:128-n8:16:32:64-S128"
target triple = "x86_64-pc-linux-gnu"

%struct.settings = type { i64, i32, i32, i32, ptr, i32, i32, i32, ptr, ptr, i32, double, i32, i32, i32, i8, i32, i32, i8, i32, i32, i32, i32, i32, i32, i8, i8, i8, i8, i8, i8, i8, i32, i32, double, double, i32, i32, i8, i32, i8, i8, ptr, i32, i32, i32, i32, double, double, i32, i8, i32, i32, i32, i32, i32, i8, i8, i8, ptr, i32, i32, i32, i32, i32, i32, i32, i32, i32, i32, double, i8, i32, i32, ptr, i32 }
%struct.conn = type { ptr, i32, i8, i8, i8, i8, i8, i8, i8, i8, ptr, i32, i32, i32, %struct.event, i16, i16, ptr, ptr, i32, i32, ptr, ptr, ptr, i32, ptr, i32, i32, i32, i32, i32, i32, i32, %struct.sockaddr_in6, i32, i8, %struct.anon.8, %union.protocol_binary_request_header, i64, i64, i16, i32, i32, ptr, ptr, ptr, ptr, ptr, ptr }
%struct.event = type { %struct.event_callback, %union.anon.0, i32, ptr, %union.anon.2, i16, i16, %struct.timeval }
%struct.event_callback = type { %struct.anon, i16, i8, i8, %union.anon, ptr }
%struct.anon = type { ptr, ptr }
%union.anon = type { ptr }
%union.anon.0 = type { %struct.anon.1 }
%struct.anon.1 = type { ptr, ptr }
%union.anon.2 = type { %struct.anon.3 }
%struct.anon.3 = type { %struct.anon.4, %struct.timeval }
%struct.anon.4 = type { ptr, ptr }
%struct.timeval = type { i64, i64 }
%struct.sockaddr_in6 = type { i16, i16, i32, %struct.in6_addr, i32 }
%struct.in6_addr = type { %union.anon.7 }
%union.anon.7 = type { [4 x i32] }
%struct.anon.8 = type { ptr, i64, i64 }
%union.protocol_binary_request_header = type { %struct.anon.9 }
%struct.anon.9 = type { i8, i8, i16, i8, i8, i16, i32, i32, i64 }
%struct.LIBEVENT_THREAD = type { i64, ptr, %struct.thread_notify, %struct.thread_notify, %union.pthread_mutex_t, %struct.iop_head_s, i32, i32, i32, %struct.thread_stats, [3 x %struct.io_queue_s], ptr, ptr, ptr, ptr, ptr, ptr, ptr, i32 }
%struct.thread_notify = type { %struct.event, i32 }
%union.pthread_mutex_t = type { %struct.__pthread_mutex_s }
%struct.__pthread_mutex_s = type { i32, i32, i32, i32, i32, i16, i16, %struct.__pthread_internal_list }
%struct.__pthread_internal_list = type { ptr, ptr }
%struct.iop_head_s = type { ptr, ptr }
%struct.thread_stats = type { %union.pthread_mutex_t, i64, i64, i64, i64, i64, i64, i64, i64, i64, i64, i64, i64, i64, i64, i64, i64, i64, i64, i64, i64, i64, i64, i64, i64, i64, i64, i64, i64, i64, i64, [64 x %struct.slab_stats], [256 x i64], i64, i64, i64 }
%struct.slab_stats = type { i64, i64, i64, i64, i64, i64, i64, i64 }
%struct.io_queue_s = type { ptr, %struct.iop_head_s, ptr, i32 }
%struct._stritem = type { ptr, ptr, ptr, i32, i32, i32, i16, i16, i8, i8, [0 x %union.anon.10] }
%union.anon.10 = type { i64 }
%struct.token_s = type { ptr, i64 }
%struct._logger = type { ptr, ptr, %union.pthread_mutex_t, i64, i64, i64, i16, i16, i16, ptr, ptr }

@.str.4 = private unnamed_addr constant [10 x i8] c"NOT_FOUND\00", align 1
@settings = external global %struct.settings, align 8
@.str.51 = private unnamed_addr constant [37 x i8] c"CLIENT_ERROR bad command line format\00", align 1
@logger_key = external global i32, align 4
@.str.85 = private unnamed_addr constant [8 x i8] c"noreply\00", align 1
@.str.120 = private unnamed_addr constant [2 x i8] c"0\00", align 1
@.str.121 = private unnamed_addr constant [69 x i8] c"CLIENT_ERROR bad command line format.  Usage: delete <key> [noreply]\00", align 1
@.str.122 = private unnamed_addr constant [8 x i8] c"DELETED\00", align 1

; Function Attrs: inlinehint nounwind uwtable
define internal zeroext i1 @set_noreply_maybe(ptr noundef %0, ptr noundef %1, i64 noundef %2) #5 {
  %4 = alloca ptr, align 8
  %5 = alloca ptr, align 8
  %6 = alloca i64, align 8
  %7 = alloca i32, align 4
  store ptr %0, ptr %4, align 8, !tbaa !4
  store ptr %1, ptr %5, align 8, !tbaa !77
  store i64 %2, ptr %6, align 8, !tbaa !44
  call void @llvm.lifetime.start.p0(i64 4, ptr %7) #8
  %8 = load i64, ptr %6, align 8, !tbaa !44
  %9 = sub i64 %8, 2
  %10 = trunc i64 %9 to i32
  store i32 %10, ptr %7, align 4, !tbaa !30
  %11 = load ptr, ptr %5, align 8, !tbaa !77
  %12 = load i32, ptr %7, align 4, !tbaa !30
  %13 = sext i32 %12 to i64
  %14 = getelementptr inbounds %struct.token_s, ptr %11, i64 %13
  %15 = getelementptr inbounds nuw %struct.token_s, ptr %14, i32 0, i32 0
  %16 = load ptr, ptr %15, align 8, !tbaa !70
  %17 = icmp ne ptr %16, null
  br i1 %17, label %18, label %30

18:                                               ; preds = %3
  %19 = load ptr, ptr %5, align 8, !tbaa !77
  %20 = load i32, ptr %7, align 4, !tbaa !30
  %21 = sext i32 %20 to i64
  %22 = getelementptr inbounds %struct.token_s, ptr %19, i64 %21
  %23 = getelementptr inbounds nuw %struct.token_s, ptr %22, i32 0, i32 0
  %24 = load ptr, ptr %23, align 8, !tbaa !70
  %25 = call i32 @strcmp(ptr noundef %24, ptr noundef @.str.85) #9
  %26 = icmp eq i32 %25, 0
  br i1 %26, label %27, label %30

27:                                               ; preds = %18
  %28 = load ptr, ptr %4, align 8, !tbaa !4
  %29 = getelementptr inbounds nuw %struct.conn, ptr %28, i32 0, i32 35
  store i8 1, ptr %29, align 4, !tbaa !43
  br label %30

30:                                               ; preds = %27, %18, %3
  %31 = load ptr, ptr %4, align 8, !tbaa !4
  %32 = getelementptr inbounds nuw %struct.conn, ptr %31, i32 0, i32 35
  %33 = load i8, ptr %32, align 4, !tbaa !43, !range !40, !noundef !41
  %34 = trunc i8 %33 to i1
  call void @llvm.lifetime.end.p0(i64 4, ptr %7) #8
  ret i1 %34
}

; Function Attrs: nounwind uwtable
define internal void @process_delete_command(ptr noundef %0, ptr noundef %1, i64 noundef %2) #0 {
  %4 = alloca ptr, align 8
  %5 = alloca ptr, align 8
  %6 = alloca i64, align 8
  %7 = alloca ptr, align 8
  %8 = alloca i64, align 8
  %9 = alloca ptr, align 8
  %10 = alloca i32, align 4
  %11 = alloca i8, align 1
  %12 = alloca i8, align 1
  %13 = alloca i8, align 1
  %14 = alloca i32, align 4
  %15 = alloca ptr, align 8
  store ptr %0, ptr %4, align 8, !tbaa !4
  store ptr %1, ptr %5, align 8, !tbaa !77
  store i64 %2, ptr %6, align 8, !tbaa !44
  call void @llvm.lifetime.start.p0(i64 8, ptr %7) #8
  call void @llvm.lifetime.start.p0(i64 8, ptr %8) #8
  call void @llvm.lifetime.start.p0(i64 8, ptr %9) #8
  call void @llvm.lifetime.start.p0(i64 4, ptr %10) #8
  %16 = load i64, ptr %6, align 8, !tbaa !44
  %17 = icmp ugt i64 %16, 3
  br i1 %17, label %18, label %61

18:                                               ; preds = %3
  call void @llvm.lifetime.start.p0(i64 1, ptr %11) #8
  %19 = load ptr, ptr %5, align 8, !tbaa !77
  %20 = getelementptr inbounds %struct.token_s, ptr %19, i64 2
  %21 = getelementptr inbounds nuw %struct.token_s, ptr %20, i32 0, i32 0
  %22 = load ptr, ptr %21, align 8, !tbaa !70
  %23 = call i32 @strcmp(ptr noundef %22, ptr noundef @.str.120) #9
  %24 = icmp eq i32 %23, 0
  %25 = zext i1 %24 to i8
  store i8 %25, ptr %11, align 1, !tbaa !31
  call void @llvm.lifetime.start.p0(i64 1, ptr %12) #8
  %26 = load ptr, ptr %4, align 8, !tbaa !4
  %27 = load ptr, ptr %5, align 8, !tbaa !77
  %28 = load i64, ptr %6, align 8, !tbaa !44
  %29 = call zeroext i1 @set_noreply_maybe(ptr noundef %26, ptr noundef %27, i64 noundef %28)
  %30 = zext i1 %29 to i8
  store i8 %30, ptr %12, align 1, !tbaa !31
  call void @llvm.lifetime.start.p0(i64 1, ptr %13) #8
  %31 = load i64, ptr %6, align 8, !tbaa !44
  %32 = icmp eq i64 %31, 4
  br i1 %32, label %33, label %39

33:                                               ; preds = %18
  %34 = load i8, ptr %11, align 1, !tbaa !31, !range !40, !noundef !41
  %35 = trunc i8 %34 to i1
  br i1 %35, label %50, label %36

36:                                               ; preds = %33
  %37 = load i8, ptr %12, align 1, !tbaa !31, !range !40, !noundef !41
  %38 = trunc i8 %37 to i1
  br i1 %38, label %50, label %39

39:                                               ; preds = %36, %18
  %40 = load i64, ptr %6, align 8, !tbaa !44
  %41 = icmp eq i64 %40, 5
  br i1 %41, label %42, label %48

42:                                               ; preds = %39
  %43 = load i8, ptr %11, align 1, !tbaa !31, !range !40, !noundef !41
  %44 = trunc i8 %43 to i1
  br i1 %44, label %45, label %48

45:                                               ; preds = %42
  %46 = load i8, ptr %12, align 1, !tbaa !31, !range !40, !noundef !41
  %47 = trunc i8 %46 to i1
  br label %48

48:                                               ; preds = %45, %42, %39
  %49 = phi i1 [ false, %42 ], [ false, %39 ], [ %47, %45 ]
  br label %50

50:                                               ; preds = %48, %36, %33
  %51 = phi i1 [ true, %36 ], [ true, %33 ], [ %49, %48 ]
  %52 = zext i1 %51 to i8
  store i8 %52, ptr %13, align 1, !tbaa !31
  %53 = load i8, ptr %13, align 1, !tbaa !31, !range !40, !noundef !41
  %54 = trunc i8 %53 to i1
  br i1 %54, label %57, label %55

55:                                               ; preds = %50
  %56 = load ptr, ptr %4, align 8, !tbaa !4
  call void @out_string(ptr noundef %56, ptr noundef @.str.121)
  store i32 1, ptr %14, align 4
  br label %58

57:                                               ; preds = %50
  store i32 0, ptr %14, align 4
  br label %58

58:                                               ; preds = %57, %55
  call void @llvm.lifetime.end.p0(i64 1, ptr %13) #8
  call void @llvm.lifetime.end.p0(i64 1, ptr %12) #8
  call void @llvm.lifetime.end.p0(i64 1, ptr %11) #8
  %59 = load i32, ptr %14, align 4
  switch i32 %59, label %169 [
    i32 0, label %60
  ]

60:                                               ; preds = %58
  br label %61

61:                                               ; preds = %60, %3
  %62 = load ptr, ptr %5, align 8, !tbaa !77
  %63 = getelementptr inbounds %struct.token_s, ptr %62, i64 1
  %64 = getelementptr inbounds nuw %struct.token_s, ptr %63, i32 0, i32 0
  %65 = load ptr, ptr %64, align 8, !tbaa !70
  store ptr %65, ptr %7, align 8, !tbaa !62
  %66 = load ptr, ptr %5, align 8, !tbaa !77
  %67 = getelementptr inbounds %struct.token_s, ptr %66, i64 1
  %68 = getelementptr inbounds nuw %struct.token_s, ptr %67, i32 0, i32 1
  %69 = load i64, ptr %68, align 8, !tbaa !79
  store i64 %69, ptr %8, align 8, !tbaa !44
  %70 = load i64, ptr %8, align 8, !tbaa !44
  %71 = icmp ugt i64 %70, 250
  br i1 %71, label %72, label %74

72:                                               ; preds = %61
  %73 = load ptr, ptr %4, align 8, !tbaa !4
  call void @out_string(ptr noundef %73, ptr noundef @.str.51)
  store i32 1, ptr %14, align 4
  br label %169

74:                                               ; preds = %61
  %75 = load i32, ptr getelementptr inbounds nuw (%struct.settings, ptr @settings, i32 0, i32 16), align 8, !tbaa !128
  %76 = icmp ne i32 %75, 0
  br i1 %76, label %77, label %80

77:                                               ; preds = %74
  %78 = load ptr, ptr %7, align 8, !tbaa !62
  %79 = load i64, ptr %8, align 8, !tbaa !44
  call void @stats_prefix_record_delete(ptr noundef %78, i64 noundef %79)
  br label %80

80:                                               ; preds = %77, %74
  %81 = load ptr, ptr %7, align 8, !tbaa !62
  %82 = load i64, ptr %8, align 8, !tbaa !44
  %83 = load ptr, ptr %4, align 8, !tbaa !4
  %84 = getelementptr inbounds nuw %struct.conn, ptr %83, i32 0, i32 44
  %85 = load ptr, ptr %84, align 8, !tbaa !32
  %86 = call ptr @item_get_locked(ptr noundef %81, i64 noundef %82, ptr noundef %85, i1 noundef zeroext false, ptr noundef %10)
  store ptr %86, ptr %9, align 8, !tbaa !27
  %87 = load ptr, ptr %9, align 8, !tbaa !27
  %88 = icmp ne ptr %87, null
  br i1 %88, label %89, label %146

89:                                               ; preds = %80
  %90 = load ptr, ptr %4, align 8, !tbaa !4
  %91 = getelementptr inbounds nuw %struct.conn, ptr %90, i32 0, i32 44
  %92 = load ptr, ptr %91, align 8, !tbaa !32
  %93 = getelementptr inbounds nuw %struct.LIBEVENT_THREAD, ptr %92, i32 0, i32 9
  %94 = getelementptr inbounds nuw %struct.thread_stats, ptr %93, i32 0, i32 0
  %95 = call i32 @pthread_mutex_lock(ptr noundef %94) #8
  %96 = load ptr, ptr %4, align 8, !tbaa !4
  %97 = getelementptr inbounds nuw %struct.conn, ptr %96, i32 0, i32 44
  %98 = load ptr, ptr %97, align 8, !tbaa !32
  %99 = getelementptr inbounds nuw %struct.LIBEVENT_THREAD, ptr %98, i32 0, i32 9
  %100 = getelementptr inbounds nuw %struct.thread_stats, ptr %99, i32 0, i32 31
  %101 = load ptr, ptr %9, align 8, !tbaa !27
  %102 = getelementptr inbounds nuw %struct._stritem, ptr %101, i32 0, i32 8
  %103 = load i8, ptr %102, align 8, !tbaa !33
  %104 = zext i8 %103 to i32
  %105 = and i32 %104, -193
  %106 = sext i32 %105 to i64
  %107 = getelementptr inbounds [64 x %struct.slab_stats], ptr %100, i64 0, i64 %106
  %108 = getelementptr inbounds nuw %struct.slab_stats, ptr %107, i32 0, i32 3
  %109 = load i64, ptr %108, align 8, !tbaa !119
  %110 = add i64 %109, 1
  store i64 %110, ptr %108, align 8, !tbaa !119
  %111 = load ptr, ptr %4, align 8, !tbaa !4
  %112 = getelementptr inbounds nuw %struct.conn, ptr %111, i32 0, i32 44
  %113 = load ptr, ptr %112, align 8, !tbaa !32
  %114 = getelementptr inbounds nuw %struct.LIBEVENT_THREAD, ptr %113, i32 0, i32 9
  %115 = getelementptr inbounds nuw %struct.thread_stats, ptr %114, i32 0, i32 0
  %116 = call i32 @pthread_mutex_unlock(ptr noundef %115) #8
  br label %117

117:                                              ; preds = %89
  call void @llvm.lifetime.start.p0(i64 8, ptr %15) #8
  store ptr null, ptr %15, align 8, !tbaa !110
  %118 = load i32, ptr @logger_key, align 4, !tbaa !30
  %119 = call ptr @pthread_getspecific(i32 noundef %118) #8
  store ptr %119, ptr %15, align 8, !tbaa !110
  %120 = load ptr, ptr %15, align 8, !tbaa !110
  %121 = getelementptr inbounds nuw %struct._logger, ptr %120, i32 0, i32 8
  %122 = load i16, ptr %121, align 4, !tbaa !111
  %123 = zext i16 %122 to i32
  %124 = and i32 %123, 8192
  %125 = icmp ne i32 %124, 0
  br i1 %125, label %126, label %130

126:                                              ; preds = %117
  %127 = load ptr, ptr %15, align 8, !tbaa !110
  %128 = load ptr, ptr %9, align 8, !tbaa !27
  %129 = call i32 (ptr, i32, ptr, ...) @logger_log(ptr noundef %127, i32 noundef 10, ptr noundef %128, i32 noundef 1)
  br label %130

130:                                              ; preds = %126, %117
  call void @llvm.lifetime.end.p0(i64 8, ptr %15) #8
  br label %131

131:                                              ; preds = %130
  br label %132

132:                                              ; preds = %131
  %133 = load ptr, ptr %9, align 8, !tbaa !27
  %134 = load i32, ptr %10, align 4, !tbaa !30
  call void @do_item_unlink(ptr noundef %133, i32 noundef %134)
  br label %135

135:                                              ; preds = %132
  %136 = load ptr, ptr %4, align 8, !tbaa !4
  %137 = getelementptr inbounds nuw %struct.conn, ptr %136, i32 0, i32 44
  %138 = load ptr, ptr %137, align 8, !tbaa !32
  %139 = getelementptr inbounds nuw %struct.LIBEVENT_THREAD, ptr %138, i32 0, i32 15
  %140 = load ptr, ptr %139, align 8, !tbaa !114
  %141 = load ptr, ptr %9, align 8, !tbaa !27
  call void @storage_delete(ptr noundef %140, ptr noundef %141)
  br label %142

142:                                              ; preds = %135
  br label %143

143:                                              ; preds = %142
  %144 = load ptr, ptr %9, align 8, !tbaa !27
  call void @do_item_remove(ptr noundef %144)
  %145 = load ptr, ptr %4, align 8, !tbaa !4
  call void @out_string(ptr noundef %145, ptr noundef @.str.122)
  br label %167

146:                                              ; preds = %80
  %147 = load ptr, ptr %4, align 8, !tbaa !4
  %148 = getelementptr inbounds nuw %struct.conn, ptr %147, i32 0, i32 44
  %149 = load ptr, ptr %148, align 8, !tbaa !32
  %150 = getelementptr inbounds nuw %struct.LIBEVENT_THREAD, ptr %149, i32 0, i32 9
  %151 = getelementptr inbounds nuw %struct.thread_stats, ptr %150, i32 0, i32 0
  %152 = call i32 @pthread_mutex_lock(ptr noundef %151) #8
  %153 = load ptr, ptr %4, align 8, !tbaa !4
  %154 = getelementptr inbounds nuw %struct.conn, ptr %153, i32 0, i32 44
  %155 = load ptr, ptr %154, align 8, !tbaa !32
  %156 = getelementptr inbounds nuw %struct.LIBEVENT_THREAD, ptr %155, i32 0, i32 9
  %157 = getelementptr inbounds nuw %struct.thread_stats, ptr %156, i32 0, i32 7
  %158 = load i64, ptr %157, align 8, !tbaa !118
  %159 = add i64 %158, 1
  store i64 %159, ptr %157, align 8, !tbaa !118
  %160 = load ptr, ptr %4, align 8, !tbaa !4
  %161 = getelementptr inbounds nuw %struct.conn, ptr %160, i32 0, i32 44
  %162 = load ptr, ptr %161, align 8, !tbaa !32
  %163 = getelementptr inbounds nuw %struct.LIBEVENT_THREAD, ptr %162, i32 0, i32 9
  %164 = getelementptr inbounds nuw %struct.thread_stats, ptr %163, i32 0, i32 0
  %165 = call i32 @pthread_mutex_unlock(ptr noundef %164) #8
  %166 = load ptr, ptr %4, align 8, !tbaa !4
  call void @out_string(ptr noundef %166, ptr noundef @.str.4)
  br label %167

167:                                              ; preds = %146, %143
  %168 = load i32, ptr %10, align 4, !tbaa !30
  call void @item_unlock(i32 noundef %168)
  store i32 0, ptr %14, align 4
  br label %169

169:                                              ; preds = %167, %72, %58
  call void @llvm.lifetime.end.p0(i64 4, ptr %10) #8
  call void @llvm.lifetime.end.p0(i64 8, ptr %9) #8
  call void @llvm.lifetime.end.p0(i64 8, ptr %8) #8
  call void @llvm.lifetime.end.p0(i64 8, ptr %7) #8
  %170 = load i32, ptr %14, align 4
  switch i32 %170, label %172 [
    i32 0, label %171
    i32 1, label %171
  ]

171:                                              ; preds = %169, %169
  ret void

172:                                              ; preds = %169
  unreachable
}