; Function Attrs: nounwind uwtable
define internal fastcc void @process_delete_command(ptr noundef %0, ptr noundef nonnull readonly captures(none) %1, i64 noundef range(i64 3, 6) %2) unnamed_addr #0 {
  %4 = alloca i32, align 4
  call void @llvm.lifetime.start.p0(i64 4, ptr nonnull %4) #13
  %5 = icmp samesign ugt i64 %2, 3
  br i1 %5, label %sub_0, label %.critedge

sub_0:                                            ; preds = %3
  %6 = getelementptr inbounds nuw i8, ptr %1, i64 32
  %7 = load ptr, ptr %6, align 8, !tbaa !66
  %8 = load i8, ptr %7, align 1
  %.not47 = icmp eq i8 %8, 48
  br i1 %.not47, label %sub_1, label %.tail

sub_1:                                            ; preds = %sub_0
  %9 = getelementptr inbounds nuw i8, ptr %7, i64 1
  %10 = load i8, ptr %9, align 1
  %11 = icmp eq i8 %10, 0
  br label %.tail

.tail:                                            ; preds = %sub_0, %sub_1
  %12 = phi i1 [ false, %sub_0 ], [ %11, %sub_1 ]
  %13 = shl nuw nsw i64 %2, 32
  %sext.i = add nsw i64 %13, -8589934592
  %14 = lshr exact i64 %sext.i, 28
  %15 = getelementptr inbounds nuw i8, ptr %1, i64 %14
  %16 = load ptr, ptr %15, align 8, !tbaa !66
  %.not.i = icmp eq ptr %16, null
  br i1 %.not.i, label %set_noreply_maybe.exit, label %17

17:                                               ; preds = %.tail
  %18 = tail call i32 @strcmp(ptr noundef nonnull dereferenceable(1) %16, ptr noundef nonnull dereferenceable(8) @.str.85) #14
  %19 = icmp eq i32 %18, 0
  br i1 %19, label %20, label %set_noreply_maybe.exit

20:                                               ; preds = %17
  %21 = getelementptr inbounds nuw i8, ptr %0, i64 308
  store i8 1, ptr %21, align 4, !tbaa !39
  br label %set_noreply_maybe.exit

set_noreply_maybe.exit:                           ; preds = %.tail, %17, %20
  %22 = getelementptr inbounds nuw i8, ptr %0, i64 308
  %23 = load i8, ptr %22, align 4, !tbaa !39, !range !37, !noundef !38
  %24 = trunc nuw i8 %23 to i1
  %switch = icmp eq i64 %2, 4
  br i1 %switch, label %25, label %26

25:                                               ; preds = %set_noreply_maybe.exit
  %brmerge = select i1 %12, i1 true, i1 %24
  br i1 %brmerge, label %.critedge, label %.critedge46

26:                                               ; preds = %set_noreply_maybe.exit
  %spec.select.old = select i1 %12, i1 %24, i1 false
  br i1 %spec.select.old, label %.critedge, label %.critedge46

.critedge46:                                      ; preds = %25, %26
  tail call void @out_string(ptr noundef nonnull %0, ptr noundef nonnull @.str.121) #13
  br label %75

.critedge:                                        ; preds = %25, %26, %3
  %27 = getelementptr inbounds nuw i8, ptr %1, i64 16
  %28 = load ptr, ptr %27, align 8, !tbaa !66
  %29 = getelementptr inbounds nuw i8, ptr %1, i64 24
  %30 = load i64, ptr %29, align 8, !tbaa !68
  %31 = icmp ugt i64 %30, 250
  br i1 %31, label %32, label %33

32:                                               ; preds = %.critedge
  tail call void @out_string(ptr noundef %0, ptr noundef nonnull @.str.51) #13
  br label %75

33:                                               ; preds = %.critedge
  %34 = load i32, ptr getelementptr inbounds nuw (i8, ptr @settings, i64 96), align 8, !tbaa !118
  %.not = icmp eq i32 %34, 0
  br i1 %.not, label %36, label %35

35:                                               ; preds = %33
  tail call void @stats_prefix_record_delete(ptr noundef %28, i64 noundef %30) #13
  br label %36

36:                                               ; preds = %35, %33
  %37 = getelementptr inbounds nuw i8, ptr %0, i64 400
  %38 = load ptr, ptr %37, align 8, !tbaa !28
  %39 = call ptr @item_get_locked(ptr noundef %28, i64 noundef %30, ptr noundef %38, i1 noundef zeroext false, ptr noundef nonnull %4) #13
  %.not42 = icmp eq ptr %39, null
  %40 = load ptr, ptr %37, align 8, !tbaa !28
  %41 = getelementptr inbounds nuw i8, ptr %40, i64 360
  %42 = call i32 @pthread_mutex_lock(ptr noundef nonnull %41) #13
  %43 = load ptr, ptr %37, align 8, !tbaa !28
  br i1 %.not42, label %67, label %44

44:                                               ; preds = %36
  %45 = getelementptr inbounds nuw i8, ptr %39, i64 40
  %46 = load i8, ptr %45, align 8, !tbaa !29
  %47 = and i8 %46, 63
  %48 = zext nneg i8 %47 to i64
  %.idx = shl nuw nsw i64 %48, 6
  %49 = getelementptr i8, ptr %43, i64 664
  %50 = getelementptr i8, ptr %49, i64 %.idx
  %51 = load i64, ptr %50, align 8, !tbaa !110
  %52 = add i64 %51, 1
  store i64 %52, ptr %50, align 8, !tbaa !110
  %53 = getelementptr inbounds nuw i8, ptr %43, i64 360
  %54 = call i32 @pthread_mutex_unlock(ptr noundef nonnull %53) #13
  %55 = load i32, ptr @logger_key, align 4, !tbaa !27
  %56 = call ptr @pthread_getspecific(i32 noundef %55) #13
  %57 = getelementptr inbounds nuw i8, ptr %56, i64 84
  %58 = load i16, ptr %57, align 4, !tbaa !102
  %59 = and i16 %58, 8192
  %.not43 = icmp eq i16 %59, 0
  br i1 %.not43, label %62, label %60

60:                                               ; preds = %44
  %61 = call i32 (ptr, i32, ptr, ...) @logger_log(ptr noundef nonnull %56, i32 noundef 10, ptr noundef nonnull %39, i32 noundef 1) #13
  br label %62

62:                                               ; preds = %60, %44
  %63 = load i32, ptr %4, align 4, !tbaa !27
  call void @do_item_unlink(ptr noundef nonnull %39, i32 noundef %63) #13
  %64 = load ptr, ptr %37, align 8, !tbaa !28
  %65 = getelementptr inbounds nuw i8, ptr %64, i64 6960
  %66 = load ptr, ptr %65, align 8, !tbaa !105
  call void @storage_delete(ptr noundef %66, ptr noundef nonnull %39) #13
  call void @do_item_remove(ptr noundef nonnull %39) #13
  br label %73

67:                                               ; preds = %36
  %68 = getelementptr inbounds nuw i8, ptr %43, i64 448
  %69 = load i64, ptr %68, align 8, !tbaa !109
  %70 = add i64 %69, 1
  store i64 %70, ptr %68, align 8, !tbaa !109
  %71 = getelementptr inbounds nuw i8, ptr %43, i64 360
  %72 = call i32 @pthread_mutex_unlock(ptr noundef nonnull %71) #13
  br label %73

73:                                               ; preds = %67, %62
  %.str.4.sink = phi ptr [ @.str.4, %67 ], [ @.str.122, %62 ]
  call void @out_string(ptr noundef nonnull %0, ptr noundef nonnull %.str.4.sink) #13
  %74 = load i32, ptr %4, align 4, !tbaa !27
  call void @item_unlock(i32 noundef %74) #13
  br label %75

75:                                               ; preds = %.critedge46, %73, %32
  call void @llvm.lifetime.end.p0(i64 4, ptr nonnull %4) #13
  ret void
}